; Function Attrs: mustprogress nounwind uwtable
define hidden void @ncnn_option_destroy(ptr noundef %0) local_unnamed_addr #5 {
  %2 = icmp eq ptr %0, null
  br i1 %2, label %4, label %3

3:                                                ; preds = %1
  tail call void @_ZdlPvm(ptr noundef nonnull %0, i64 noundef 64) #25
  br label %4

4:                                                ; preds = %3, %1
  ret void
}